target datalayout = "e-m:e-p270:32:32-p271:32:32-p272:64:64-i64:64-i128:128-f80:128-n8:16:32:64-S128"
target triple = "x86_64-pc-linux-gnu"

@proto_register_mip.ett = internal global [5 x ptr] [ptr @ett_mip, ptr @ett_mip_flags, ptr @ett_mip_ext, ptr @ett_mip_exts, ptr @ett_mip_pmipv4_ext], align 16
@.str.215 = private unnamed_addr constant [10 x i8] c"Mobile IP\00", align 1
@.str.216 = private unnamed_addr constant [4 x i8] c"mip\00", align 1
@proto_mip = internal global i32 0, align 4
@mip_handle = internal global ptr null, align 8
@.str.217 = private unnamed_addr constant [13 x i8] c"mip.nvse_ext\00", align 1
@.str.218 = private unnamed_addr constant [50 x i8] c"MIP Normal Vendor/Organization Specific Extension\00", align 1
@mip_nvse_ext_dissector_table = internal global ptr null, align 8

; Function Attrs: null_pointer_is_valid sspstrong uwtable
define hidden void @proto_register_mip() #0 {
  %1 = alloca ptr, align 8
  call void @llvm.lifetime.start.p0(i64 8, ptr %1) #3
  %2 = call i32 @proto_register_protocol(ptr noundef @.str.215, ptr noundef @.str.215, ptr noundef @.str.216)
  store i32 %2, ptr @proto_mip, align 4
  %3 = load i32, ptr @proto_mip, align 4
  %4 = call ptr @register_dissector(ptr noundef @.str.216, ptr noundef @dissect_mip, i32 noundef %3)
  store ptr %4, ptr @mip_handle, align 8
  %5 = load i32, ptr @proto_mip, align 4
  call void @proto_register_field_array(i32 noundef %5, ptr noundef @proto_register_mip.hf, i32 noundef 91)
  call void @proto_register_subtree_array(ptr noundef @proto_register_mip.ett, i32 noundef 5)
  %6 = load i32, ptr @proto_mip, align 4
  %7 = call ptr @expert_register_protocol(i32 noundef %6)
  store ptr %7, ptr %1, align 8
  %8 = load ptr, ptr %1, align 8
  call void @expert_register_field_array(ptr noundef %8, ptr noundef @proto_register_mip.ei, i32 noundef 1)
  %9 = load i32, ptr @proto_mip, align 4
  %10 = call ptr @register_dissector_table(ptr noundef @.str.217, ptr noundef @.str.218, i32 noundef %9, i32 noundef 7, i32 noundef 1)
  store ptr %10, ptr @mip_nvse_ext_dissector_table, align 8
  call void @llvm.lifetime.end.p0(i64 8, ptr %1) #3
  ret void
}