; Function Attrs: null_pointer_is_valid sspstrong uwtable
define hidden void @proto_register_mip() local_unnamed_addr #0 {
  %1 = tail call i32 @proto_register_protocol(ptr noundef nonnull @.str.215, ptr noundef nonnull @.str.215, ptr noundef nonnull @.str.216)
  store i32 %1, ptr @proto_mip, align 4
  %2 = tail call ptr @register_dissector(ptr noundef nonnull @.str.216, ptr noundef nonnull @dissect_mip, i32 noundef %1)
  store ptr %2, ptr @mip_handle, align 8
  %3 = load i32, ptr @proto_mip, align 4
  tail call void @proto_register_field_array(i32 noundef %3, ptr noundef nonnull @proto_register_mip.hf, i32 noundef 91)
  tail call void @proto_register_subtree_array(ptr noundef nonnull @proto_register_mip.ett, i32 noundef 5)
  %4 = load i32, ptr @proto_mip, align 4
  %5 = tail call ptr @expert_register_protocol(i32 noundef %4)
  tail call void @expert_register_field_array(ptr noundef %5, ptr noundef nonnull @proto_register_mip.ei, i32 noundef 1)
  %6 = load i32, ptr @proto_mip, align 4
  %7 = tail call ptr @register_dissector_table(ptr noundef nonnull @.str.217, ptr noundef nonnull @.str.218, i32 noundef %6, i32 noundef 7, i32 noundef 1)
  store ptr %7, ptr @mip_nvse_ext_dissector_table, align 8
  ret void
}